*** EVALUATION ***
ANSI-C/cC++ Compiler for HC08 V-5.0.41 Build 12319, Nov 15 2012

    1:  /************************************************************************************
    2:  * This module contains various common functions like copy and compare routines.
    3:  *
    4:  * (c) Copyright 2004, Freescale, Inc.  All rights reserved.
    5:  *
    6:  * Freescale Confidential Proprietary
    7:  * Digianswer Confidential
    8:  *
    9:  * No part of this document must be reproduced in any form - including copied,
   10:  * transcribed, printed or by any electronic means - without specific written
   11:  * permission from Freescale.
   12:  *
   13:  ************************************************************************************/
   14:  
   15:  #include "EmbeddedTypes.h"
   16:  
   17:  /************************************************************************************
   18:  *************************************************************************************
   19:  * Private macros
   20:  *************************************************************************************
   21:  ************************************************************************************/
   22:  
   23:  /************************************************************************************
   24:  *************************************************************************************
   25:  * Private prototypes
   26:  *************************************************************************************
   27:  ************************************************************************************/
   28:  
   29:  /************************************************************************************
   30:  *************************************************************************************
   31:  * Private type definitions
   32:  *************************************************************************************
   33:  ************************************************************************************/
   34:  
   35:  /************************************************************************************
   36:  *************************************************************************************
   37:  * Public memory declarations
   38:  *************************************************************************************
   39:  ************************************************************************************/
   40:  
   41:  /************************************************************************************
   42:  *************************************************************************************
   43:  * Private memory declarations
   44:  *************************************************************************************
   45:  ************************************************************************************/
   46:  
   47:    // Array-functionality specific base, and head pointers
   48:  static uint8_t *pmaFlibArrayBase, *pmaFlibArray;
   49:  
   50:  /************************************************************************************
   51:  *************************************************************************************
   52:  * Public functions
   53:  *************************************************************************************
   54:  ************************************************************************************/
   55:  
   56:  /************************************************************************************
   57:  * Copy upto 256 bytes from one buffer to another. The buffers should not overlap.
   58:  *   
   59:  * Interface assumptions:
   60:  *   None
   61:  *   
   62:  * Return value:
   63:  *   None
   64:  * 
   65:  ************************************************************************************/
   66:  void FLib_MemCpy
   67:    (
   68:    void *pDst, // Destination buffer
   69:    void *pSrc, // Source buffer
   70:    uint8_t n   // Byte count
   71:    )
   72:  {
  0000 87       [2]             PSHA  
   73:      // Code looks weird, but is quite optimal on a HCS08 CPU
   74:    while(n) {
  0001 2013     [3]             BRA   L16 ;abs = 0016
  0003          L3:     
   75:      *((uint8_t *)pDst) = *((uint8_t *)pSrc);
  0003 f6       [3]             LDA   ,X
  0004 89       [2]             PSHX  
  0005 8b       [2]             PSHH  
  0006 9efe07   [5]             LDHX  7,SP
  0009 f7       [2]             STA   ,X
   76:      pDst=((uint8_t *)pDst)+1;
  000a af01     [2]             AIX   #1
  000c 9eff07   [5]             STHX  7,SP
   77:      pSrc=((uint8_t *)pSrc)+1;
  000f 8a       [3]             PULH  
  0010 88       [3]             PULX  
  0011 af01     [2]             AIX   #1
   78:      n--;
  0013 9e6a01   [6]             DEC   1,SP
  0016          L16:    
  0016 9e6d01   [5]             TST   1,SP
  0019 26e8     [3]             BNE   L3 ;abs = 0003
   79:    }
   80:  }
  001b 8a       [3]             PULH  
  001c 8d       [7]             RTC   
   81:  
   82:  /************************************************************************************
   83:  * Copy upto 256 bytes from one buffer to another. The buffers should not overlap.
   84:  * The function can copy in either direction. If 'dir' is TRUE, then the function
   85:  * works like FLib_MemCpy(). If FALSE, the function swaps the buffer pointers
   86:  * before copying.
   87:  *   
   88:  * Interface assumptions:
   89:  *   None
   90:  *   
   91:  * Return value:
   92:  *   None
   93:  * 
   94:  ************************************************************************************/
   95:  void FLib_MemCpyDir
   96:    (
   97:    void *pBuf1, // Dst/Src buffer
   98:    void *pBuf2, // Src/Dst buffer
   99:    bool_t dir,  // Direction: TRUE: pBuf1<-pBuf2, FALSE: pBuf2<-pBuf1
  100:    uint8_t n    // Byte count
  101:    )
  102:  {
  0000 89       [2]             PSHX  
  103:    if(dir)
  0001 95       [2]             TSX   
  0002 7d       [3]             TST   ,X
  0003 270a     [3]             BEQ   LF ;abs = 000f
  104:      FLib_MemCpy(pBuf1, pBuf2, n);
  0005 9efe07   [5]             LDHX  7,SP
  0008 89       [2]             PSHX  
  0009 8b       [2]             PSHH  
  000a 9efe07   [5]             LDHX  7,SP
  000d 2008     [3]             BRA   L17 ;abs = 0017
  000f          LF:     
  105:    else
  106:      FLib_MemCpy(pBuf2, pBuf1, n);
  000f 9efe05   [5]             LDHX  5,SP
  0012 89       [2]             PSHX  
  0013 8b       [2]             PSHH  
  0014 9efe09   [5]             LDHX  9,SP
  0017          L17:    
  0017 ac000000 [8]             CALL  FLib_MemCpy
  107:  }
  001b a703     [2]             AIS   #3
  001d 8d       [7]             RTC   
  108:  
  109:  
  110:  /************************************************************************************
  111:  * Copy up to 256 bytes, possibly into the same overlapping memory as it is taken from
  112:  *   
  113:  * Interface assumptions:
  114:  *   None
  115:  *   
  116:  * Return value:
  117:  *   None
  118:  * 
  119:  ************************************************************************************/
  120:  void FLib_MemInPlaceCpy
  121:    (
  122:    void *pDst, // Destination buffer
  123:    void *pSrc, // Source buffer
  124:    uint8_t n   // Byte count
  125:    )
  126:  {
  0000 89       [2]             PSHX  
  0001 8b       [2]             PSHH  
  0002 87       [2]             PSHA  
  127:    if (pDst != pSrc) { // Do nothing if copying to same position
  0003 9ef307   [6]             CPHX  7,SP
  0006 273e     [3]             BEQ   L46 ;abs = 0046
  128:      if (pDst < pSrc) { // If dst is before src in memory copy forward
  0008 221a     [3]             BHI   L24 ;abs = 0024
  000a 2036     [3]             BRA   L42 ;abs = 0042
  000c          LC:     
  129:          // Code looks weird, but is quite optimal on a HCS08 CPU
  130:        while(n) {
  131:          *((uint8_t *)pDst) = *((uint8_t *)pSrc);
  000c 9efe02   [5]             LDHX  2,SP
  000f f6       [3]             LDA   ,X
  0010 89       [2]             PSHX  
  0011 8b       [2]             PSHH  
  0012 9efe09   [5]             LDHX  9,SP
  0015 f7       [2]             STA   ,X
  132:          pDst=((uint8_t *)pDst)+1;
  0016 af01     [2]             AIX   #1
  0018 9eff09   [5]             STHX  9,SP
  133:          pSrc=((uint8_t *)pSrc)+1;
  001b 8a       [3]             PULH  
  001c 88       [3]             PULX  
  001d af01     [2]             AIX   #1
  001f 9eff02   [5]             STHX  2,SP
  134:          n--;
  0022 95       [2]             TSX   
  0023 7a       [4]             DEC   ,X
  0024          L24:    
  0024 95       [2]             TSX   
  0025 7d       [3]             TST   ,X
  0026 271e     [3]             BEQ   L46 ;abs = 0046
  0028 20e2     [3]             BRA   LC ;abs = 000c
  002a          L2A:    
  135:        }
  136:      }
  137:      else { // If dst is after src in memory copy backward
  138:        while(n) {
  139:          n--;
  002a 7a       [4]             DEC   ,X
  140:          ((uint8_t *)pDst)[n] = ((uint8_t *)pSrc)[n];
  002b f6       [3]             LDA   ,X
  002c eb07     [3]             ADD   7,X
  002e 87       [2]             PSHA  
  002f 4f       [1]             CLRA  
  0030 e906     [3]             ADC   6,X
  0032 87       [2]             PSHA  
  0033 f6       [3]             LDA   ,X
  0034 eb02     [3]             ADD   2,X
  0036 87       [2]             PSHA  
  0037 4f       [1]             CLRA  
  0038 e901     [3]             ADC   1,X
  003a 87       [2]             PSHA  
  003b 8a       [3]             PULH  
  003c 88       [3]             PULX  
  003d fe       [3]             LDX   ,X
  003e 8a       [3]             PULH  
  003f 9f       [1]             TXA   
  0040 88       [3]             PULX  
  0041 f7       [2]             STA   ,X
  0042          L42:    
  0042 95       [2]             TSX   
  0043 7d       [3]             TST   ,X
  0044 26e4     [3]             BNE   L2A ;abs = 002a
  0046          L46:    
  141:        }
  142:      }
  143:    }
  144:  }
  0046 a703     [2]             AIS   #3
  0048 8d       [7]             RTC   
  145:  
  146:  /************************************************************************************
  147:  * Copy up to 256 bytes. The byte at index i from the source buffer is copied to index
  148:  * ((n-1) - i) in the destination buffer (and vice versa).
  149:  *   
  150:  * Interface assumptions:
  151:  *   None
  152:  *   
  153:  * Return value:
  154:  *   None
  155:  * 
  156:  ************************************************************************************/
  157:  void FLib_MemCpyReverseOrder
  158:    (
  159:    void *pDst, // Destination buffer
  160:    void *pSrc, // Source buffer
  161:    uint8_t n   // Byte count
  162:    )
  163:  {
  0000 87       [2]             PSHA  
  164:    pDst = (uint8_t *)pDst + (uint8_t)(n-1);
  0001 4a       [1]             DECA  
  0002 9eeb06   [4]             ADD   6,SP
  0005 9ee706   [4]             STA   6,SP
  0008 4f       [1]             CLRA  
  0009 9ee905   [4]             ADC   5,SP
  000c 9ee705   [4]             STA   5,SP
  165:      // Code looks weird, but is quite optimal on a HCS08 CPU
  166:    while(n) {
  000f 2013     [3]             BRA   L24 ;abs = 0024
  0011          L11:    
  167:      *((uint8_t *)pDst) = *((uint8_t *)pSrc);
  0011 f6       [3]             LDA   ,X
  0012 89       [2]             PSHX  
  0013 8b       [2]             PSHH  
  0014 9efe07   [5]             LDHX  7,SP
  0017 f7       [2]             STA   ,X
  168:      pDst=(uint8_t *)pDst-1;
  0018 afff     [2]             AIX   #-1
  001a 9eff07   [5]             STHX  7,SP
  169:      pSrc=(uint8_t *)pSrc+1;
  001d 8a       [3]             PULH  
  001e 88       [3]             PULX  
  001f af01     [2]             AIX   #1
  170:      n--;
  0021 9e6a01   [6]             DEC   1,SP
  0024          L24:    
  0024 9e6d01   [5]             TST   1,SP
  0027 26e8     [3]             BNE   L11 ;abs = 0011
  171:    }
  172:  }
  0029 8a       [3]             PULH  
  002a 8d       [7]             RTC   
  173:  
  174:  
  175:  /************************************************************************************
  176:  * Compare upto 256 bytes.
  177:  *   
  178:  * Interface assumptions:
  179:  *   None
  180:  *   
  181:  * Return value:
  182:  *   TRUE if content of buffers is equal, and FALSE otherwise.
  183:  * 
  184:  ************************************************************************************/
  185:  bool_t FLib_MemCmp
  186:    (
  187:    void *pCmp1,  // Buffer with to be compared with pCmp2
  188:    void *pCmp2,  // Buffer with to be compared with pCmp1
  189:    uint8_t n     // Byte count
  190:    )
  191:  {
  0000 89       [2]             PSHX  
  0001 8b       [2]             PSHH  
  0002 87       [2]             PSHA  
  192:    while(n) {
  0003 201f     [3]             BRA   L24 ;abs = 0024
  0005          L5:     
  193:      if( *((uint8_t *)pCmp1) != *((uint8_t *)pCmp2) )
  0005 9efe02   [5]             LDHX  2,SP
  0008 f6       [3]             LDA   ,X
  0009 9efe07   [5]             LDHX  7,SP
  000c f1       [3]             CMP   ,X
  000d 2703     [3]             BEQ   L12 ;abs = 0012
  194:        return FALSE;
  000f 4f       [1]             CLRA  
  0010 2018     [3]             BRA   L2A ;abs = 002a
  0012          L12:    
  195:  
  196:      pCmp2=(uint8_t *)pCmp2+1;
  0012 9efe02   [5]             LDHX  2,SP
  0015 af01     [2]             AIX   #1
  0017 9eff02   [5]             STHX  2,SP
  197:      pCmp1=(uint8_t *)pCmp1+1;
  001a 9efe07   [5]             LDHX  7,SP
  001d af01     [2]             AIX   #1
  001f 9eff07   [5]             STHX  7,SP
  198:      n--;
  0022 95       [2]             TSX   
  0023 7a       [4]             DEC   ,X
  0024          L24:    
  0024 95       [2]             TSX   
  0025 7d       [3]             TST   ,X
  0026 26dd     [3]             BNE   L5 ;abs = 0005
  199:    }
  200:    return TRUE;
  0028 a601     [2]             LDA   #1
  002a          L2A:    
  201:  }
  002a a703     [2]             AIS   #3
  002c 8d       [7]             RTC   
  202:  
  203:  
  204:  /************************************************************************************
  205:  * Compare two bytes.
  206:  *   
  207:  * Interface assumptions:
  208:  *   None
  209:  *   
  210:  * Return value:
  211:  *   TRUE if content of buffers is equal, and FALSE otherwise.
  212:  * 
  213:  ************************************************************************************/
  214:  bool_t FLib_Cmp2Bytes
  215:    (
  216:    void *pCmp1, // Buffer with to be compared with pCmp2
  217:    void *pCmp2  // Buffer with to be compared with pCmp1
  218:    )
  219:  {
  0000 89       [2]             PSHX  
  0001 8b       [2]             PSHH  
  220:    return (((uint8_t *)pCmp1)[0] == ((uint8_t *)pCmp2)[0]) &&
  0002 f6       [3]             LDA   ,X
  0003 9efe06   [5]             LDHX  6,SP
  0006 f1       [3]             CMP   ,X
  0007 260c     [3]             BNE   L15 ;abs = 0015
  221:           (((uint8_t *)pCmp1)[1] == ((uint8_t *)pCmp2)[1]);
  0009 9efe01   [5]             LDHX  1,SP
  000c e601     [3]             LDA   1,X
  000e 9efe06   [5]             LDHX  6,SP
  0011 e101     [3]             CMP   1,X
  0013 2702     [3]             BEQ   L17 ;abs = 0017
  0015          L15:    
  0015 4f       [1]             CLRA  
  0016 65       [3]             SKIP2 L19 ;abs = 0019
  0017          L17:    
  0017 a601     [2]             LDA   #1
  0019          L19:    
  222:  }
  0019 a702     [2]             AIS   #2
  001b 8d       [7]             RTC   
  223:  
  224:  /************************************************************************************
  225:  * Reset buffer contents to a single value.
  226:  *   
  227:  * Interface assumptions:
  228:  *   None
  229:  *   
  230:  * Return value:
  231:  *   None.
  232:  * 
  233:  ************************************************************************************/
  234:  void FLib_MemSet
  235:    (
  236:    void *pDst,    // Buffer to be reset
  237:    uint8_t value, // Byte value
  238:    uint8_t cnt    // Byte count
  239:    )
  240:  {
  0000 89       [2]             PSHX  
  241:    while(cnt) {
  0001 2010     [3]             BRA   L13 ;abs = 0013
  0003          L3:     
  242:      ((uint8_t *)pDst)[--cnt] = value;
  0003 4a       [1]             DECA  
  0004 87       [2]             PSHA  
  0005 95       [2]             TSX   
  0006 eb06     [3]             ADD   6,X
  0008 87       [2]             PSHA  
  0009 4f       [1]             CLRA  
  000a e905     [3]             ADC   5,X
  000c 87       [2]             PSHA  
  000d e601     [3]             LDA   1,X
  000f 8a       [3]             PULH  
  0010 88       [3]             PULX  
  0011 f7       [2]             STA   ,X
  0012 86       [3]             PULA  
  0013          L13:    
  0013 4d       [1]             TSTA  
  0014 26ed     [3]             BNE   L3 ;abs = 0003
  243:    }
  244:  }
  0016 8a       [3]             PULH  
  0017 8d       [7]             RTC   
  245:  
  246:  /************************************************************************************
  247:  * Reset buffer contents to a single value.
  248:  *   
  249:  ************************************************************************************/
  250:  void FLib_MemSet16
  251:    (
  252:    void *pDst,    // Buffer to be reset
  253:    uint8_t value, // Byte value
  254:    uint16_t cnt    // Byte count
  255:    )
  256:  {
  0000 87       [2]             PSHA  
  0001 89       [2]             PSHX  
  0002 8b       [2]             PSHH  
  257:    while(cnt) {
  0003 2016     [3]             BRA   L1B ;abs = 001b
  0005          L5:     
  258:      ((uint8_t *)pDst)[--cnt] = value;
  0005 95       [2]             TSX   
  0006 6d01     [4]             TST   1,X
  0008 2601     [3]             BNE   LB ;abs = 000b
  000a 7a       [4]             DEC   ,X
  000b          LB:     
  000b 6a01     [5]             DEC   1,X
  000d e607     [3]             LDA   7,X
  000f eb01     [3]             ADD   1,X
  0011 87       [2]             PSHA  
  0012 f6       [3]             LDA   ,X
  0013 e906     [3]             ADC   6,X
  0015 87       [2]             PSHA  
  0016 e602     [3]             LDA   2,X
  0018 8a       [3]             PULH  
  0019 88       [3]             PULX  
  001a f7       [2]             STA   ,X
  001b          L1B:    
  001b 9efe01   [5]             LDHX  1,SP
  001e 26e5     [3]             BNE   L5 ;abs = 0005
  259:    }
  260:  }
  0020 a703     [2]             AIS   #3
  0022 8d       [7]             RTC   
  261:  
  262:  /************************************************************************************
  263:  * Convert an 802.15.4 address mode to a length in bytes, Input values must be 0, 2,
  264:  * or 3. Other values will return either 0 or 2.
  265:  * 
  266:  ************************************************************************************/
  267:  uint8_t FLib_AddrModeToLength
  268:    (
  269:    uint8_t addrMode // IN: 802.15.4 address mode (0, 2, or 3)
  270:    )
  271:  {
  272:    addrMode &= 0x03;
  0000 a403     [2]             AND   #3
  273:    if(addrMode == 3)
  0002 a103     [2]             CMP   #3
  0004 2603     [3]             BNE   L9 ;abs = 0009
  274:      return 8;
  0006 a608     [2]             LDA   #8
  0008 8d       [7]             RTC   
  0009          L9:     
  275:    return addrMode & 0x02;
  0009 a402     [2]             AND   #2
  276:  }
  000b 8d       [7]             RTC   
  277:  
  278:  
  279:  /************************************************************************************
  280:  * Add an offset to a pointer. The offset can be in the range 0-255.
  281:  * 
  282:  * Interface assumptions:
  283:  *   None
  284:  *   
  285:  * Return value:
  286:  *    None
  287:  * 
  288:  ************************************************************************************/
  289:  void FLib_AddOffsetToPointer
  290:    (
  291:    void **pPtr,    // IN/OUT: Pointer to the pointer to add the offset to
  292:    uint8_t offset  // IN: Offset to add to the supplied pointe´r
  293:    )
  294:  {
  295:    (*pPtr) = ((uint8_t *)*pPtr) + offset;
  0000 eb01     [3]             ADD   1,X
  0002 e701     [3]             STA   1,X
  0004 4f       [1]             CLRA  
  0005 f9       [3]             ADC   ,X
  0006 f7       [2]             STA   ,X
  296:  }
  0007 8d       [7]             RTC   
  297:   
  298:  /************************************************************************************
  299:  * Initialize an Array-session. The supplied pointer will be stored in a module
  300:  * variable, and used as a base pointer for succeeding Array-operations.
  301:  * 
  302:  * Interface assumptions:
  303:  *   None
  304:  *   
  305:  * Return value:
  306:  *    None
  307:  * 
  308:  ************************************************************************************/
  309:  void FLib_ArrayInit
  310:    (
  311:    uint8_t *pArray // IN: Base pointer used for Array-operations
  312:    )
  313:  {
  314:    pmaFlibArrayBase = pmaFlibArray = pArray;
  0000 960000   [5]             STHX  pmaFlibArray
  0003 960000   [5]             STHX  pmaFlibArrayBase
  315:  }
  0006 8d       [7]             RTC   
  316:  
  317:  /************************************************************************************
  318:  * Get the current length of the array as number of bytes. The 'bias' argument is
  319:  * added to the array length.
  320:  * 
  321:  * Interface assumptions:
  322:  *   None
  323:  *   
  324:  * Return value:
  325:  *   Number of continous bytes stored in the Array + bias.
  326:  * 
  327:  ************************************************************************************/
  328:  uint8_t FLib_ArrayLength
  329:    (
  330:    uint8_t bias // IN: Value to be added to the returned length
  331:    )
  332:  {
  0000 87       [2]             PSHA  
  333:    return (uint8_t)((pmaFlibArray - pmaFlibArrayBase) + bias);
  0001 c60001   [4]             LDA   pmaFlibArray:1
  0004 c00001   [4]             SUB   pmaFlibArrayBase:1
  0007 95       [2]             TSX   
  0008 fb       [3]             ADD   ,X
  334:  }
  0009 8a       [3]             PULH  
  000a 8d       [7]             RTC   
  335:  
  336:  /************************************************************************************
  337:  * Get the pointer to the current position in the Array
  338:  * 
  339:  * Interface assumptions:
  340:  *   None
  341:  *   
  342:  * Return value:
  343:  *   Pointer to next empty position in array.
  344:  * 
  345:  ************************************************************************************/
  346:  /*uint8_t *FLib_ArrayGet
  347:    (
  348:    void
  349:    )
  350:  {
  351:    return pmaFlibArray;
  352:  }
  353:  */
  354:  /************************************************************************************
  355:  * Move the head pointer to a position in the Array relative to the original
  356:  * base pointer.
  357:  * 
  358:  * Interface assumptions:
  359:  *   None
  360:  *   
  361:  * Return value:
  362:  *   None
  363:  * 
  364:  ************************************************************************************/
  365:  void FLib_ArraySetOffset
  366:    (
  367:    uint8_t offset // IN: Position relative to the Array-base
  368:    )
  369:  {
  370:     pmaFlibArray = pmaFlibArrayBase + offset;
  0000 cb0001   [4]             ADD   pmaFlibArrayBase:1
  0003 87       [2]             PSHA  
  0004 4f       [1]             CLRA  
  0005 c90000   [4]             ADC   pmaFlibArrayBase
  0008 87       [2]             PSHA  
  0009 8a       [3]             PULH  
  000a 88       [3]             PULX  
  000b 960000   [5]             STHX  pmaFlibArray
  371:  }
  000e 8d       [7]             RTC   
  372:  
  373:  /************************************************************************************
  374:  * Copy a number of bytes to the Array.
  375:  * 
  376:  * Interface assumptions:
  377:  *   None
  378:  *   
  379:  * Return value:
  380:  *   None
  381:  * 
  382:  ************************************************************************************/
  383:  void FLib_ArrayAddArray
  384:    (
  385:    uint8_t *pArray, // IN: The byte array to be added
  386:    uint8_t length   // IN: Number of bytes to be added
  387:    )
  388:  {
  0000 87       [2]             PSHA  
  389:    while(length) {
  0001 2013     [3]             BRA   L16 ;abs = 0016
  0003          L3:     
  390:      *pmaFlibArray = *pArray;
  0003 f6       [3]             LDA   ,X
  0004 89       [2]             PSHX  
  0005 8b       [2]             PSHH  
  0006 320000   [5]             LDHX  pmaFlibArray
  0009 f7       [2]             STA   ,X
  391:      pmaFlibArray = pmaFlibArray + 1;
  000a af01     [2]             AIX   #1
  000c 960000   [5]             STHX  pmaFlibArray
  392:      pArray = pArray + 1;
  000f 8a       [3]             PULH  
  0010 88       [3]             PULX  
  0011 af01     [2]             AIX   #1
  393:      length--;
  0013 9e6a01   [6]             DEC   1,SP
  0016          L16:    
  0016 9e6d01   [5]             TST   1,SP
  0019 26e8     [3]             BNE   L3 ;abs = 0003
  394:    }
  395:  }
  001b 8a       [3]             PULH  
  001c 8d       [7]             RTC   
  396:  
  397:  /************************************************************************************
  398:  * Add one byte to the Array.
  399:  * 
  400:  * Interface assumptions:
  401:  *   None
  402:  *   
  403:  * Return value:
  404:  *   None
  405:  * 
  406:  ************************************************************************************/
  407:  void FLib_ArrayAddByte
  408:    (
  409:    uint8_t byte // IN: Byte to add to the Array
  410:    )
  411:  {
  412:     *pmaFlibArray = byte;
  0000 320000   [5]             LDHX  pmaFlibArray
  0003 f7       [2]             STA   ,X
  413:     pmaFlibArray = pmaFlibArray + 1;
  0004 af01     [2]             AIX   #1
  0006 960000   [5]             STHX  pmaFlibArray
  414:  }
  0009 8d       [7]             RTC   
  415:  
  416:  
  417:  /************************************************************************************
  418:  *************************************************************************************
  419:  * Private functions
  420:  *************************************************************************************
  421:  ************************************************************************************/
  422:  
  423:  /************************************************************************************
  424:  *************************************************************************************
  425:  * Module debug stuff
  426:  *************************************************************************************
  427:  ************************************************************************************/
  428:  
  429:  
